; Function Attrs: nounwind sspstrong uwtable
define internal fastcc noalias nonnull ptr @bitmap_new(i64 noundef %nbits) unnamed_addr #0 {
entry:
  %sub.i = add i64 %nbits, 63
  %0 = lshr i64 %sub.i, 3
  %mul.i = and i64 %0, 2305843009213693944
  %call.i = tail call noalias ptr @g_try_malloc0(i64 noundef %mul.i) #15
  %cmp = icmp eq ptr %call.i, null
  br i1 %cmp, label %if.then, label %if.end

if.then:                                          ; preds = %entry
  tail call void @abort() #13
  unreachable

if.end:                                           ; preds = %entry
  ret ptr %call.i
}